target datalayout = "e-m:e-p270:32:32-p271:32:32-p272:64:64-i64:64-i128:128-f80:128-n8:16:32:64-S128"
target triple = "x86_64-pc-linux-gnu"

%struct._packet_info = type { ptr, ptr, i32, i32, %struct.nstime_t, %struct.nstime_t, %struct.nstime_t, i32, ptr, ptr, ptr, ptr, %struct._address, %struct._address, %struct._address, %struct._address, %struct._address, %struct._address, i32, ptr, i32, %struct.anon, i32, i32, i32, i32, ptr, i32, ptr, ptr, i16, i16, i32, i32, i16, i32, i32, ptr, ptr, ptr, i8, i8, i16, i16, i16, i32, i16, i16, ptr, ptr, ptr, ptr, ptr, i32 }
%struct.nstime_t = type { i64, i32 }
%struct._address = type { i32, i32, ptr, ptr }
%struct.anon = type { i8, [3 x i8] }

@hf_isns_port_type = internal global i32 0, align 4
@isns_tcp_handle = internal global ptr null, align 8
@isns_udp_handle = internal global ptr null, align 8

; Function Attrs: nounwind uwtable
define internal void @dissect_isns_attr_port(ptr noundef %0, i32 noundef %1, ptr noundef %2, i32 noundef %3, i16 noundef zeroext %4, ptr noundef %5) #0 {
  %7 = alloca ptr, align 8
  %8 = alloca i32, align 4
  %9 = alloca ptr, align 8
  %10 = alloca i32, align 4
  %11 = alloca i16, align 2
  %12 = alloca ptr, align 8
  %13 = alloca i16, align 2
  %14 = alloca i32, align 4
  %15 = alloca ptr, align 8
  %16 = alloca i32, align 4
  %17 = alloca ptr, align 8
  store ptr %0, ptr %7, align 8
  store i32 %1, ptr %8, align 4
  store ptr %2, ptr %9, align 8
  store i32 %3, ptr %10, align 4
  store i16 %4, ptr %11, align 2
  store ptr %5, ptr %12, align 8
  %18 = load ptr, ptr %7, align 8
  %19 = load i32, ptr %8, align 4
  %20 = add i32 %19, 2
  %21 = call zeroext i16 @tvb_get_ntohs(ptr noundef %18, i32 noundef %20)
  store i16 %21, ptr %13, align 2
  %22 = load ptr, ptr %7, align 8
  %23 = load i32, ptr %8, align 4
  %24 = call zeroext i16 @tvb_get_ntohs(ptr noundef %22, i32 noundef %23)
  %25 = zext i16 %24 to i32
  %26 = and i32 %25, 1
  %27 = icmp eq i32 %26, 1
  %28 = zext i1 %27 to i32
  store i32 %28, ptr %14, align 4
  %29 = load ptr, ptr %9, align 8
  %30 = load i32, ptr %10, align 4
  %31 = load ptr, ptr %7, align 8
  %32 = load i32, ptr %8, align 4
  %33 = load i16, ptr %13, align 2
  %34 = zext i16 %33 to i32
  %35 = call ptr @proto_tree_add_uint(ptr noundef %29, i32 noundef %30, ptr noundef %31, i32 noundef %32, i32 noundef 4, i32 noundef %34)
  %36 = load ptr, ptr %9, align 8
  %37 = load i32, ptr @hf_isns_port_type, align 4
  %38 = load ptr, ptr %7, align 8
  %39 = load i32, ptr %8, align 4
  %40 = load i32, ptr %14, align 4
  %41 = sext i32 %40 to i64
  %42 = call ptr @proto_tree_add_boolean(ptr noundef %36, i32 noundef %37, ptr noundef %38, i32 noundef %39, i32 noundef 2, i64 noundef %41)
  %43 = load i16, ptr %11, align 2
  %44 = zext i16 %43 to i32
  %45 = icmp eq i32 %44, 1
  br i1 %45, label %50, label %46

46:                                               ; preds = %6
  %47 = load i16, ptr %11, align 2
  %48 = zext i16 %47 to i32
  %49 = icmp eq i32 %48, 2
  br i1 %49, label %50, label %86

50:                                               ; preds = %46, %6
  %51 = load i32, ptr %14, align 4
  %52 = icmp ne i32 %51, 0
  br i1 %52, label %53, label %55

53:                                               ; preds = %50
  store i32 3, ptr %16, align 4
  %54 = load ptr, ptr @isns_udp_handle, align 8
  store ptr %54, ptr %17, align 8
  br label %57

55:                                               ; preds = %50
  store i32 2, ptr %16, align 4
  %56 = load ptr, ptr @isns_tcp_handle, align 8
  store ptr %56, ptr %17, align 8
  br label %57

57:                                               ; preds = %55, %53
  %58 = load ptr, ptr %12, align 8
  %59 = getelementptr inbounds %struct._packet_info, ptr %58, i32 0, i32 3
  %60 = load i32, ptr %59, align 4
  %61 = load ptr, ptr %12, align 8
  %62 = getelementptr inbounds %struct._packet_info, ptr %61, i32 0, i32 16
  %63 = load ptr, ptr %12, align 8
  %64 = getelementptr inbounds %struct._packet_info, ptr %63, i32 0, i32 17
  %65 = load i32, ptr %16, align 4
  %66 = load i16, ptr %13, align 2
  %67 = zext i16 %66 to i32
  %68 = call ptr @find_conversation(i32 noundef %60, ptr noundef %62, ptr noundef %64, i32 noundef %65, i32 noundef %67, i32 noundef 0, i32 noundef 131072)
  store ptr %68, ptr %15, align 8
  %69 = load ptr, ptr %15, align 8
  %70 = icmp eq ptr %69, null
  br i1 %70, label %71, label %85

71:                                               ; preds = %57
  %72 = load ptr, ptr %12, align 8
  %73 = getelementptr inbounds %struct._packet_info, ptr %72, i32 0, i32 3
  %74 = load i32, ptr %73, align 4
  %75 = load ptr, ptr %12, align 8
  %76 = getelementptr inbounds %struct._packet_info, ptr %75, i32 0, i32 16
  %77 = load ptr, ptr %12, align 8
  %78 = getelementptr inbounds %struct._packet_info, ptr %77, i32 0, i32 17
  %79 = load i32, ptr %16, align 4
  %80 = load i16, ptr %13, align 2
  %81 = zext i16 %80 to i32
  %82 = call nonnull ptr @conversation_new(i32 noundef %74, ptr noundef %76, ptr noundef %78, i32 noundef %79, i32 noundef %81, i32 noundef 0, i32 noundef 4)
  store ptr %82, ptr %15, align 8
  %83 = load ptr, ptr %15, align 8
  %84 = load ptr, ptr %17, align 8
  call void @conversation_set_dissector(ptr noundef %83, ptr noundef %84)
  br label %85

85:                                               ; preds = %71, %57
  br label %86

86:                                               ; preds = %85, %46
  ret void
}